; ModuleID = '1/1107.c'
source_filename = "1/1107.c"
target datalayout = "e-m:e-p270:32:32-p271:32:32-p272:64:64-i64:64-f80:128-n8:16:32:64-S128"
target triple = "x86_64-pc-linux-gnu"

@.str = private unnamed_addr constant [3 x i8] c"%d\00", align 1
@.str.1 = private unnamed_addr constant [4 x i8] c"%d\0A\00", align 1

; Function Attrs: noinline nounwind uwtable
define dso_local i32 @F(i32 %0, i32 %1) #0 {
  %3 = alloca i32, align 4
  %4 = alloca i32, align 4
  %5 = alloca i32, align 4
  %6 = alloca i32, align 4
  %7 = alloca i32, align 4
  store i32 %0, i32* %4, align 4
  store i32 %1, i32* %5, align 4
  store i32 0, i32* %7, align 4
  %8 = load i32, i32* %4, align 4
  %9 = load i32, i32* %5, align 4
  %10 = icmp eq i32 %8, %9
  br i1 %10, label %11, label %12

11:                                               ; preds = %2
  store i32 1, i32* %3, align 4
  br label %41

12:                                               ; preds = %2
  %13 = load i32, i32* %5, align 4
  %14 = icmp eq i32 %13, 1
  br i1 %14, label %15, label %16

15:                                               ; preds = %12
  store i32 1, i32* %3, align 4
  br label %41

16:                                               ; preds = %12
  %17 = load i32, i32* %4, align 4
  store i32 %17, i32* %6, align 4
  br label %18

18:                                               ; preds = %36, %16
  %19 = load i32, i32* %6, align 4
  %20 = load i32, i32* %5, align 4
  %21 = icmp sle i32 %19, %20
  br i1 %21, label %22, label %39

22:                                               ; preds = %18
  %23 = load i32, i32* %5, align 4
  %24 = load i32, i32* %6, align 4
  %25 = srem i32 %23, %24
  %26 = icmp eq i32 %25, 0
  br i1 %26, label %27, label %35

27:                                               ; preds = %22
  %28 = load i32, i32* %6, align 4
  %29 = load i32, i32* %5, align 4
  %30 = load i32, i32* %6, align 4
  %31 = sdiv i32 %29, %30
  %32 = call i32 @F(i32 %28, i32 %31)
  %33 = load i32, i32* %7, align 4
  %34 = add nsw i32 %33, %32
  store i32 %34, i32* %7, align 4
  br label %35

35:                                               ; preds = %27, %22
  br label %36

36:                                               ; preds = %35
  %37 = load i32, i32* %6, align 4
  %38 = add nsw i32 %37, 1
  store i32 %38, i32* %6, align 4
  br label %18

39:                                               ; preds = %18
  %40 = load i32, i32* %7, align 4
  store i32 %40, i32* %3, align 4
  br label %41

41:                                               ; preds = %39, %15, %11
  %42 = load i32, i32* %3, align 4
  ret i32 %42
}

; Function Attrs: noinline nounwind uwtable
define dso_local i32 @main() #0 {
  %1 = alloca i32, align 4
  %2 = alloca i32, align 4
  %3 = alloca i32, align 4
  %4 = alloca i32, align 4
  store i32 0, i32* %1, align 4
  %5 = call i32 (i8*, ...) @__isoc99_scanf(i8* getelementptr inbounds ([3 x i8], [3 x i8]* @.str, i64 0, i64 0), i32* %3)
  store i32 0, i32* %4, align 4
  br label %6

6:                                                ; preds = %15, %0
  %7 = load i32, i32* %4, align 4
  %8 = load i32, i32* %3, align 4
  %9 = icmp slt i32 %7, %8
  br i1 %9, label %10, label %18

10:                                               ; preds = %6
  %11 = call i32 (i8*, ...) @__isoc99_scanf(i8* getelementptr inbounds ([3 x i8], [3 x i8]* @.str, i64 0, i64 0), i32* %2)
  %12 = load i32, i32* %2, align 4
  %13 = call i32 @F(i32 2, i32 %12)
  %14 = call i32 (i8*, ...) @printf(i8* getelementptr inbounds ([4 x i8], [4 x i8]* @.str.1, i64 0, i64 0), i32 %13)
  br label %15

15:                                               ; preds = %10
  %16 = load i32, i32* %4, align 4
  %17 = add nsw i32 %16, 1
  store i32 %17, i32* %4, align 4
  br label %6

18:                                               ; preds = %6
  ret i32 0
}

declare dso_local i32 @__isoc99_scanf(i8*, ...) #1

declare dso_local i32 @printf(i8*, ...) #1


!llvm.module.flags = !{!0}
!llvm.ident = !{!1}

!0 = !{i32 1, !"wchar_size", i32 4}
!1 = !{!"clang version 10.0.0-4ubuntu1 "}
